target datalayout = "e-m:e-p270:32:32-p271:32:32-p272:64:64-i64:64-i128:128-f80:128-n8:16:32:64-S128"
target triple = "x86_64-pc-linux-gnu"

%struct.ewah_iterator = type { ptr, i64, i64, i64, i64, i64, i64, i32 }

; Function Attrs: inlinehint nounwind uwtable
define internal i32 @rlw_get_run_bit(ptr noundef %0) #2 {
  %2 = alloca ptr, align 8
  store ptr %0, ptr %2, align 8, !tbaa !19
  %3 = load ptr, ptr %2, align 8, !tbaa !19
  %4 = load i64, ptr %3, align 8, !tbaa !11
  %5 = and i64 %4, 1
  %6 = trunc i64 %5 to i32
  ret i32 %6
}

; Function Attrs: inlinehint nounwind uwtable
define internal i64 @rlw_get_literal_words(ptr noundef %0) #2 {
  %2 = alloca ptr, align 8
  store ptr %0, ptr %2, align 8, !tbaa !19
  %3 = load ptr, ptr %2, align 8, !tbaa !19
  %4 = load i64, ptr %3, align 8, !tbaa !11
  %5 = lshr i64 %4, 33
  ret i64 %5
}

; Function Attrs: inlinehint nounwind uwtable
define internal i64 @rlw_get_running_len(ptr noundef %0) #2 {
  %2 = alloca ptr, align 8
  store ptr %0, ptr %2, align 8, !tbaa !19
  %3 = load ptr, ptr %2, align 8, !tbaa !19
  %4 = load i64, ptr %3, align 8, !tbaa !11
  %5 = lshr i64 %4, 1
  %6 = and i64 %5, 4294967295
  ret i64 %6
}

; Function Attrs: nounwind uwtable
define internal void @read_new_rlw(ptr noundef %0) #0 {
  %2 = alloca ptr, align 8
  %3 = alloca ptr, align 8
  %4 = alloca i32, align 4
  store ptr %0, ptr %2, align 8, !tbaa !29
  call void @llvm.lifetime.start.p0(i64 8, ptr %3) #7
  store ptr null, ptr %3, align 8, !tbaa !19
  %5 = load ptr, ptr %2, align 8, !tbaa !29
  %6 = getelementptr inbounds nuw %struct.ewah_iterator, ptr %5, i32 0, i32 4
  store i64 0, ptr %6, align 8, !tbaa !37
  %7 = load ptr, ptr %2, align 8, !tbaa !29
  %8 = getelementptr inbounds nuw %struct.ewah_iterator, ptr %7, i32 0, i32 3
  store i64 0, ptr %8, align 8, !tbaa !34
  br label %9

9:                                                ; preds = %60, %1
  br label %10

10:                                               ; preds = %9
  %11 = load ptr, ptr %2, align 8, !tbaa !29
  %12 = getelementptr inbounds nuw %struct.ewah_iterator, ptr %11, i32 0, i32 0
  %13 = load ptr, ptr %12, align 8, !tbaa !38
  %14 = load ptr, ptr %2, align 8, !tbaa !29
  %15 = getelementptr inbounds nuw %struct.ewah_iterator, ptr %14, i32 0, i32 2
  %16 = load i64, ptr %15, align 8, !tbaa !31
  %17 = getelementptr inbounds nuw i64, ptr %13, i64 %16
  store ptr %17, ptr %3, align 8, !tbaa !19
  %18 = load ptr, ptr %3, align 8, !tbaa !19
  %19 = call i64 @rlw_get_running_len(ptr noundef %18)
  %20 = load ptr, ptr %2, align 8, !tbaa !29
  %21 = getelementptr inbounds nuw %struct.ewah_iterator, ptr %20, i32 0, i32 5
  store i64 %19, ptr %21, align 8, !tbaa !35
  %22 = load ptr, ptr %3, align 8, !tbaa !19
  %23 = call i64 @rlw_get_literal_words(ptr noundef %22)
  %24 = load ptr, ptr %2, align 8, !tbaa !29
  %25 = getelementptr inbounds nuw %struct.ewah_iterator, ptr %24, i32 0, i32 6
  store i64 %23, ptr %25, align 8, !tbaa !39
  %26 = load ptr, ptr %3, align 8, !tbaa !19
  %27 = call i32 @rlw_get_run_bit(ptr noundef %26)
  %28 = load ptr, ptr %2, align 8, !tbaa !29
  %29 = getelementptr inbounds nuw %struct.ewah_iterator, ptr %28, i32 0, i32 7
  store i32 %27, ptr %29, align 8, !tbaa !36
  %30 = load ptr, ptr %2, align 8, !tbaa !29
  %31 = getelementptr inbounds nuw %struct.ewah_iterator, ptr %30, i32 0, i32 5
  %32 = load i64, ptr %31, align 8, !tbaa !35
  %33 = icmp ne i64 %32, 0
  br i1 %33, label %39, label %34

34:                                               ; preds = %10
  %35 = load ptr, ptr %2, align 8, !tbaa !29
  %36 = getelementptr inbounds nuw %struct.ewah_iterator, ptr %35, i32 0, i32 6
  %37 = load i64, ptr %36, align 8, !tbaa !39
  %38 = icmp ne i64 %37, 0
  br i1 %38, label %39, label %40

39:                                               ; preds = %34, %10
  store i32 1, ptr %4, align 4
  br label %61

40:                                               ; preds = %34
  %41 = load ptr, ptr %2, align 8, !tbaa !29
  %42 = getelementptr inbounds nuw %struct.ewah_iterator, ptr %41, i32 0, i32 2
  %43 = load i64, ptr %42, align 8, !tbaa !31
  %44 = load ptr, ptr %2, align 8, !tbaa !29
  %45 = getelementptr inbounds nuw %struct.ewah_iterator, ptr %44, i32 0, i32 1
  %46 = load i64, ptr %45, align 8, !tbaa !33
  %47 = sub i64 %46, 1
  %48 = icmp ult i64 %43, %47
  br i1 %48, label %49, label %54

49:                                               ; preds = %40
  %50 = load ptr, ptr %2, align 8, !tbaa !29
  %51 = getelementptr inbounds nuw %struct.ewah_iterator, ptr %50, i32 0, i32 2
  %52 = load i64, ptr %51, align 8, !tbaa !31
  %53 = add i64 %52, 1
  store i64 %53, ptr %51, align 8, !tbaa !31
  br label %60

54:                                               ; preds = %40
  %55 = load ptr, ptr %2, align 8, !tbaa !29
  %56 = getelementptr inbounds nuw %struct.ewah_iterator, ptr %55, i32 0, i32 1
  %57 = load i64, ptr %56, align 8, !tbaa !33
  %58 = load ptr, ptr %2, align 8, !tbaa !29
  %59 = getelementptr inbounds nuw %struct.ewah_iterator, ptr %58, i32 0, i32 2
  store i64 %57, ptr %59, align 8, !tbaa !31
  store i32 1, ptr %4, align 4
  br label %61

60:                                               ; preds = %49
  br label %9

61:                                               ; preds = %54, %39
  call void @llvm.lifetime.end.p0(i64 8, ptr %3) #7
  ret void
}

; Function Attrs: nounwind uwtable
define dso_local i32 @ewah_iterator_next(ptr noundef %0, ptr noundef %1) #0 {
  %3 = alloca i32, align 4
  %4 = alloca ptr, align 8
  %5 = alloca ptr, align 8
  store ptr %0, ptr %4, align 8, !tbaa !19
  store ptr %1, ptr %5, align 8, !tbaa !29
  %6 = load ptr, ptr %5, align 8, !tbaa !29
  %7 = getelementptr inbounds nuw %struct.ewah_iterator, ptr %6, i32 0, i32 2
  %8 = load i64, ptr %7, align 8, !tbaa !31
  %9 = load ptr, ptr %5, align 8, !tbaa !29
  %10 = getelementptr inbounds nuw %struct.ewah_iterator, ptr %9, i32 0, i32 1
  %11 = load i64, ptr %10, align 8, !tbaa !33
  %12 = icmp uge i64 %8, %11
  br i1 %12, label %13, label %14

13:                                               ; preds = %2
  store i32 0, ptr %3, align 4
  br label %80

14:                                               ; preds = %2
  %15 = load ptr, ptr %5, align 8, !tbaa !29
  %16 = getelementptr inbounds nuw %struct.ewah_iterator, ptr %15, i32 0, i32 3
  %17 = load i64, ptr %16, align 8, !tbaa !34
  %18 = load ptr, ptr %5, align 8, !tbaa !29
  %19 = getelementptr inbounds nuw %struct.ewah_iterator, ptr %18, i32 0, i32 5
  %20 = load i64, ptr %19, align 8, !tbaa !35
  %21 = icmp ult i64 %17, %20
  br i1 %21, label %22, label %33

22:                                               ; preds = %14
  %23 = load ptr, ptr %5, align 8, !tbaa !29
  %24 = getelementptr inbounds nuw %struct.ewah_iterator, ptr %23, i32 0, i32 3
  %25 = load i64, ptr %24, align 8, !tbaa !34
  %26 = add i64 %25, 1
  store i64 %26, ptr %24, align 8, !tbaa !34
  %27 = load ptr, ptr %5, align 8, !tbaa !29
  %28 = getelementptr inbounds nuw %struct.ewah_iterator, ptr %27, i32 0, i32 7
  %29 = load i32, ptr %28, align 8, !tbaa !36
  %30 = icmp ne i32 %29, 0
  %31 = select i1 %30, i64 -1, i64 0
  %32 = load ptr, ptr %4, align 8, !tbaa !19
  store i64 %31, ptr %32, align 8, !tbaa !11
  br label %51

33:                                               ; preds = %14
  %34 = load ptr, ptr %5, align 8, !tbaa !29
  %35 = getelementptr inbounds nuw %struct.ewah_iterator, ptr %34, i32 0, i32 4
  %36 = load i64, ptr %35, align 8, !tbaa !37
  %37 = add i64 %36, 1
  store i64 %37, ptr %35, align 8, !tbaa !37
  %38 = load ptr, ptr %5, align 8, !tbaa !29
  %39 = getelementptr inbounds nuw %struct.ewah_iterator, ptr %38, i32 0, i32 2
  %40 = load i64, ptr %39, align 8, !tbaa !31
  %41 = add i64 %40, 1
  store i64 %41, ptr %39, align 8, !tbaa !31
  %42 = load ptr, ptr %5, align 8, !tbaa !29
  %43 = getelementptr inbounds nuw %struct.ewah_iterator, ptr %42, i32 0, i32 0
  %44 = load ptr, ptr %43, align 8, !tbaa !38
  %45 = load ptr, ptr %5, align 8, !tbaa !29
  %46 = getelementptr inbounds nuw %struct.ewah_iterator, ptr %45, i32 0, i32 2
  %47 = load i64, ptr %46, align 8, !tbaa !31
  %48 = getelementptr inbounds nuw i64, ptr %44, i64 %47
  %49 = load i64, ptr %48, align 8, !tbaa !11
  %50 = load ptr, ptr %4, align 8, !tbaa !19
  store i64 %49, ptr %50, align 8, !tbaa !11
  br label %51

51:                                               ; preds = %33, %22
  %52 = load ptr, ptr %5, align 8, !tbaa !29
  %53 = getelementptr inbounds nuw %struct.ewah_iterator, ptr %52, i32 0, i32 3
  %54 = load i64, ptr %53, align 8, !tbaa !34
  %55 = load ptr, ptr %5, align 8, !tbaa !29
  %56 = getelementptr inbounds nuw %struct.ewah_iterator, ptr %55, i32 0, i32 5
  %57 = load i64, ptr %56, align 8, !tbaa !35
  %58 = icmp eq i64 %54, %57
  br i1 %58, label %59, label %79

59:                                               ; preds = %51
  %60 = load ptr, ptr %5, align 8, !tbaa !29
  %61 = getelementptr inbounds nuw %struct.ewah_iterator, ptr %60, i32 0, i32 4
  %62 = load i64, ptr %61, align 8, !tbaa !37
  %63 = load ptr, ptr %5, align 8, !tbaa !29
  %64 = getelementptr inbounds nuw %struct.ewah_iterator, ptr %63, i32 0, i32 6
  %65 = load i64, ptr %64, align 8, !tbaa !39
  %66 = icmp eq i64 %62, %65
  br i1 %66, label %67, label %79

67:                                               ; preds = %59
  %68 = load ptr, ptr %5, align 8, !tbaa !29
  %69 = getelementptr inbounds nuw %struct.ewah_iterator, ptr %68, i32 0, i32 2
  %70 = load i64, ptr %69, align 8, !tbaa !31
  %71 = add i64 %70, 1
  store i64 %71, ptr %69, align 8, !tbaa !31
  %72 = load ptr, ptr %5, align 8, !tbaa !29
  %73 = getelementptr inbounds nuw %struct.ewah_iterator, ptr %72, i32 0, i32 1
  %74 = load i64, ptr %73, align 8, !tbaa !33
  %75 = icmp ult i64 %71, %74
  br i1 %75, label %76, label %78

76:                                               ; preds = %67
  %77 = load ptr, ptr %5, align 8, !tbaa !29
  call void @read_new_rlw(ptr noundef %77)
  br label %78

78:                                               ; preds = %76, %67
  br label %79

79:                                               ; preds = %78, %59, %51
  store i32 1, ptr %3, align 4
  br label %80

80:                                               ; preds = %79, %13
  %81 = load i32, ptr %3, align 4
  ret i32 %81
}