; Function Attrs: nofree norecurse nosync nounwind memory(read, argmem: readwrite, inaccessiblemem: none) uwtable
define dso_local range(i32 0, 2) i32 @ewah_iterator_next(ptr noundef writeonly captures(none) %0, ptr noundef captures(none) %1) local_unnamed_addr #6 {
  %3 = getelementptr inbounds nuw i8, ptr %1, i64 16
  %4 = load i64, ptr %3, align 8, !tbaa !23
  %5 = getelementptr inbounds nuw i8, ptr %1, i64 8
  %6 = load i64, ptr %5, align 8, !tbaa !26
  %.not = icmp ult i64 %4, %6
  br i1 %.not, label %7, label %read_new_rlw.exit

7:                                                ; preds = %2
  %8 = getelementptr inbounds nuw i8, ptr %1, i64 24
  %9 = load i64, ptr %8, align 8, !tbaa !27
  %10 = getelementptr inbounds nuw i8, ptr %1, i64 40
  %11 = load i64, ptr %10, align 8, !tbaa !28
  %12 = icmp ult i64 %9, %11
  br i1 %12, label %13, label %18

13:                                               ; preds = %7
  %14 = add nuw i64 %9, 1
  store i64 %14, ptr %8, align 8, !tbaa !27
  %15 = getelementptr inbounds nuw i8, ptr %1, i64 56
  %16 = load i32, ptr %15, align 8, !tbaa !29
  %.not20 = icmp ne i32 %16, 0
  %17 = sext i1 %.not20 to i64
  br label %26

18:                                               ; preds = %7
  %19 = getelementptr inbounds nuw i8, ptr %1, i64 32
  %20 = load i64, ptr %19, align 8, !tbaa !30
  %21 = add i64 %20, 1
  store i64 %21, ptr %19, align 8, !tbaa !30
  %22 = add nuw i64 %4, 1
  store i64 %22, ptr %3, align 8, !tbaa !23
  %23 = load ptr, ptr %1, align 8, !tbaa !31
  %24 = getelementptr inbounds nuw i64, ptr %23, i64 %22
  %25 = load i64, ptr %24, align 8, !tbaa !12
  br label %26

26:                                               ; preds = %18, %13
  %storemerge = phi i64 [ %25, %18 ], [ %17, %13 ]
  store i64 %storemerge, ptr %0, align 8, !tbaa !12
  %27 = load i64, ptr %8, align 8, !tbaa !27
  %28 = load i64, ptr %10, align 8, !tbaa !28
  %29 = icmp eq i64 %27, %28
  br i1 %29, label %30, label %read_new_rlw.exit

30:                                               ; preds = %26
  %31 = getelementptr inbounds nuw i8, ptr %1, i64 32
  %32 = load i64, ptr %31, align 8, !tbaa !30
  %33 = getelementptr inbounds nuw i8, ptr %1, i64 48
  %34 = load i64, ptr %33, align 8, !tbaa !32
  %35 = icmp eq i64 %32, %34
  br i1 %35, label %36, label %read_new_rlw.exit

36:                                               ; preds = %30
  %37 = load i64, ptr %3, align 8, !tbaa !23
  %38 = add i64 %37, 1
  store i64 %38, ptr %3, align 8, !tbaa !23
  %39 = load i64, ptr %5, align 8, !tbaa !26
  %40 = icmp ult i64 %38, %39
  br i1 %40, label %41, label %read_new_rlw.exit

41:                                               ; preds = %36
  tail call void @llvm.memset.p0.i64(ptr noundef nonnull align 8 dereferenceable(16) %8, i8 0, i64 16, i1 false)
  %42 = load ptr, ptr %1, align 8, !tbaa !31
  %43 = getelementptr inbounds nuw i8, ptr %1, i64 56
  %44 = getelementptr inbounds nuw i64, ptr %42, i64 %38
  %.val1823.i = load i64, ptr %44, align 8, !tbaa !12
  %45 = lshr i64 %.val1823.i, 1
  %46 = and i64 %45, 4294967295
  store i64 %46, ptr %10, align 8, !tbaa !28
  %.val1924.i = load i64, ptr %44, align 8, !tbaa !12
  %47 = lshr i64 %.val1924.i, 33
  store i64 %47, ptr %33, align 8, !tbaa !32
  %.val25.i = load i64, ptr %44, align 8, !tbaa !12
  %48 = trunc i64 %.val25.i to i32
  %49 = and i32 %48, 1
  %.not26.i = icmp eq i64 %46, 0
  %.not1727.i = icmp ult i64 %.val1924.i, 8589934592
  %or.cond28.i = select i1 %.not26.i, i1 %.not1727.i, i1 false
  br i1 %or.cond28.i, label %.lr.ph.i, label %.loopexit.i

.lr.ph.i:                                         ; preds = %41
  %50 = add i64 %39, -1
  %51 = icmp ult i64 %38, %50
  br i1 %51, label %.lr.ph, label %._crit_edge

52:                                               ; preds = %.lr.ph
  %exitcond.not = icmp eq i64 %54, %50
  br i1 %exitcond.not, label %._crit_edge.loopexit, label %.lr.ph

.lr.ph:                                           ; preds = %.lr.ph.i, %52
  %53 = phi i64 [ %54, %52 ], [ %38, %.lr.ph.i ]
  %54 = add nuw i64 %53, 1
  store i64 %54, ptr %3, align 8, !tbaa !23
  %55 = getelementptr inbounds nuw i64, ptr %42, i64 %54
  %.val18.i = load i64, ptr %55, align 8, !tbaa !12
  %56 = lshr i64 %.val18.i, 1
  %57 = and i64 %56, 4294967295
  store i64 %57, ptr %10, align 8, !tbaa !28
  %.val19.i = load i64, ptr %55, align 8, !tbaa !12
  %58 = lshr i64 %.val19.i, 33
  store i64 %58, ptr %33, align 8, !tbaa !32
  %.not.i = icmp eq i64 %57, 0
  %.not17.i = icmp ult i64 %.val19.i, 8589934592
  %or.cond.i = select i1 %.not.i, i1 %.not17.i, i1 false
  br i1 %or.cond.i, label %52, label %.loopexit.i.loopexit

._crit_edge.loopexit:                             ; preds = %52
  %59 = getelementptr inbounds nuw i64, ptr %42, i64 %54
  %.val.i.le = load i64, ptr %59, align 8, !tbaa !12
  %60 = trunc i64 %.val.i.le to i32
  %61 = and i32 %60, 1
  br label %._crit_edge

._crit_edge:                                      ; preds = %._crit_edge.loopexit, %.lr.ph.i
  %.lcssa = phi i32 [ %49, %.lr.ph.i ], [ %61, %._crit_edge.loopexit ]
  store i32 %.lcssa, ptr %43, align 8, !tbaa !29
  store i64 %39, ptr %3, align 8, !tbaa !23
  br label %read_new_rlw.exit

.loopexit.i.loopexit:                             ; preds = %.lr.ph
  %62 = getelementptr inbounds nuw i64, ptr %42, i64 %54
  %.val.i.le31 = load i64, ptr %62, align 8, !tbaa !12
  %63 = trunc i64 %.val.i.le31 to i32
  %64 = and i32 %63, 1
  br label %.loopexit.i

.loopexit.i:                                      ; preds = %.loopexit.i.loopexit, %41
  %.lcssa.i = phi i32 [ %49, %41 ], [ %64, %.loopexit.i.loopexit ]
  store i32 %.lcssa.i, ptr %43, align 8, !tbaa !29
  br label %read_new_rlw.exit

read_new_rlw.exit:                                ; preds = %.loopexit.i, %._crit_edge, %26, %30, %36, %2
  %.0 = phi i32 [ 0, %2 ], [ 1, %36 ], [ 1, %30 ], [ 1, %26 ], [ 1, %._crit_edge ], [ 1, %.loopexit.i ]
  ret i32 %.0
}